Certificate:
    Data:
        Version: 3 (0x2)
        Serial Number: 3 (0x3)
        Signature Algorithm: sha256WithRSAEncryption
        Issuer: C=CN, ST=JS, O=Huawei, OU=Dev, CN=SecondCA/emailAddress=secondca@world.com
        Validity
            Not Before: Oct 12 09:46:45 2022 GMT
            Not After : Oct  9 09:46:45 2032 GMT
        Subject: C=CN, ST=JS, O=Huawei, OU=Dev, CN=testclient.com/emailAddress=test@world.com
        Subject Public Key Info:
            Public Key Algorithm: rsaEncryption
                RSA Public-Key: (2048 bit)
                Modulus:
                    00:e5:eb:c7:fd:84:20:0c:7a:f2:12:df:fa:39:5d:
                    40:2d:a6:cd:48:81:a0:66:32:de:d1:18:e8:ba:8e:
                    bc:e2:f3:e0:44:e0:fa:a8:b9:df:0c:a6:4e:da:59:
                    5f:92:ea:56:3a:dc:90:26:f9:36:f6:08:a2:35:ad:
                    b4:82:d9:c4:8a:78:6b:eb:17:a6:27:c3:df:63:15:
                    e8:4d:0d:29:0c:22:50:43:e6:e8:ce:e2:6d:8d:0e:
                    83:e7:e2:1d:10:27:be:ad:b7:9c:c4:48:b1:20:c2:
                    62:50:85:8b:ec:fb:b9:c0:3a:ea:1c:a2:3d:e5:62:
                    6b:dd:70:e2:97:ce:be:8e:d5:ee:30:1e:94:e0:3a:
                    37:44:fe:ca:5b:93:05:6a:8c:a7:f6:6a:d0:20:a5:
                    2b:d9:0e:ac:b1:0e:04:51:06:98:05:ae:4a:c9:47:
                    c7:bf:6d:47:b2:92:bd:c7:54:fb:b8:b5:86:67:b3:
                    de:53:f0:d5:7c:94:1d:2e:4f:58:3a:57:72:21:5c:
                    2b:b4:00:b8:92:56:bf:29:25:56:47:d9:4c:a5:29:
                    b7:90:ba:bc:e1:9d:43:0a:4c:b4:c2:78:b3:43:47:
                    86:f8:66:d2:23:c8:49:00:59:f7:6f:07:c1:9a:ef:
                    7d:44:38:ad:97:3e:46:61:8f:ff:98:3e:73:78:35:
                    e9:1f
                Exponent: 65537 (0x10001)
        X509v3 extensions:
            X509v3 Basic Constraints: 
                CA:FALSE
            Netscape Comment: 
                OpenSSL Generated Certificate
            X509v3 Subject Key Identifier: 
                A6:28:FE:B3:E2:16:72:B4:DE:71:8A:10:BE:79:5C:90:9A:31:7C:0B
            X509v3 Authority Key Identifier: 
                keyid:C7:83:AD:B8:8A:A9:78:47:3D:C7:69:FC:23:69:4B:D5:67:FC:C4:DF

    Signature Algorithm: sha256WithRSAEncryption
         6b:41:eb:e5:91:e3:26:6d:f0:3b:98:27:b4:90:e2:0b:04:04:
         0a:3a:04:40:bf:95:7e:8d:bf:80:9e:49:12:81:cf:c4:43:1a:
         e3:79:cc:07:c9:b4:2f:64:f5:cd:a5:d3:7b:40:61:04:27:c2:
         46:22:aa:c1:10:a0:de:a8:8f:3d:09:72:49:90:6f:5e:32:dd:
         d8:fb:94:29:60:98:c0:81:cb:a0:4f:8e:40:cb:f3:97:73:ff:
         83:45:47:62:b8:57:12:7c:a3:06:1a:36:30:42:40:5a:75:a1:
         74:6a:fb:07:25:b9:6b:1e:7a:38:68:24:82:5d:e3:d1:f5:e2:
         09:0d:71:58:36:8f:57:a9:71:17:4a:e2:46:4b:de:0f:db:ea:
         e6:f5:d4:d5:2f:b7:ed:91:7e:b4:10:50:2a:78:dc:5a:4a:f3:
         a7:cb:77:57:44:9d:e7:32:14:28:05:3b:21:fe:95:aa:cf:50:
         f6:2d:ed:fb:59:5a:42:ca:8a:1f:d3:f6:43:b5:50:79:9a:5d:
         be:2e:67:45:59:83:9f:ad:e9:4b:7f:8d:e0:f7:77:c4:27:1c:
         c7:ed:2f:f4:ca:39:1f:ad:8a:1c:25:11:99:96:4f:23:9b:6a:
         11:e6:cf:44:8c:59:07:d4:21:6d:e1:7c:d0:ee:43:33:f2:6c:
         a9:f2:70:2d
-----BEGIN CERTIFICATE-----
MIID1jCCAr6gAwIBAgIBAzANBgkqhkiG9w0BAQsFADBvMQswCQYDVQQGEwJDTjEL
MAkGA1UECAwCSlMxDzANBgNVBAoMBkh1YXdlaTEMMAoGA1UECwwDRGV2MREwDwYD
VQQDDAhTZWNvbmRDQTEhMB8GCSqGSIb3DQEJARYSc2Vjb25kY2FAd29ybGQuY29t
MB4XDTIyMTAxMjA5NDY0NVoXDTMyMTAwOTA5NDY0NVowcTELMAkGA1UEBhMCQ04x
CzAJBgNVBAgMAkpTMQ8wDQYDVQQKDAZIdWF3ZWkxDDAKBgNVBAsMA0RldjEXMBUG
A1UEAwwOdGVzdGNsaWVudC5jb20xHTAbBgkqhkiG9w0BCQEWDnRlc3RAd29ybGQu
Y29tMIIBIjANBgkqhkiG9w0BAQEFAAOCAQ8AMIIBCgKCAQEA5evH/YQgDHryEt/6
OV1ALabNSIGgZjLe0Rjouo684vPgROD6qLnfDKZO2llfkupWOtyQJvk29giiNa20
gtnEinhr6xemJ8PfYxXoTQ0pDCJQQ+bozuJtjQ6D5+IdECe+rbecxEixIMJiUIWL
7Pu5wDrqHKI95WJr3XDil86+jtXuMB6U4Do3RP7KW5MFaoyn9mrQIKUr2Q6ssQ4E
UQaYBa5KyUfHv21HspK9x1T7uLWGZ7PeU/DVfJQdLk9YOldyIVwrtAC4kla/KSVW
R9lMpSm3kLq84Z1DCky0wnizQ0eG+GbSI8hJAFn3bwfBmu99RDitlz5GYY//mD5z
eDXpHwIDAQABo3sweTAJBgNVHRMEAjAAMCwGCWCGSAGG+EIBDQQfFh1PcGVuU1NM
IEdlbmVyYXRlZCBDZXJ0aWZpY2F0ZTAdBgNVHQ4EFgQUpij+s+IWcrTecYoQvnlc
kJoxfAswHwYDVR0jBBgwFoAUx4OtuIqpeEc9x2n8I2lL1Wf8xN8wDQYJKoZIhvcN
AQELBQADggEBAGtB6+WR4yZt8DuYJ7SQ4gsEBAo6BEC/lX6Nv4CeSRKBz8RDGuN5
zAfJtC9k9c2l03tAYQQnwkYiqsEQoN6ojz0JckmQb14y3dj7lClgmMCBy6BPjkDL
85dz/4NFR2K4VxJ8owYaNjBCQFp1oXRq+wcluWseejhoJIJd49H14gkNcVg2j1ep
cRdK4kZL3g/b6ub11NUvt+2RfrQQUCp43FpK86fLd1dEnecyFCgFOyH+larPUPYt
7ftZWkLKih/T9kO1UHmaXb4uZ0VZg5+t6Ut/jeD3d8QnHMftL/TKOR+tihwlEZmW
TyObahHmz0SMWQfUIW3hfNDuQzPybKnycC0=
-----END CERTIFICATE-----
