Certificate:
    Data:
        Version: 3 (0x2)
        Serial Number: 1 (0x1)
        Signature Algorithm: sha256WithRSAEncryption
        Issuer: C=CN, ST=JS, L=NJ, O=Huawei, OU=Dev, CN=RootCA/emailAddress=rootca@world.com
        Validity
            Not Before: Oct 12 09:42:08 2022 GMT
            Not After : Oct  9 09:42:08 2032 GMT
        Subject: C=CN, ST=JS, O=Huawei, OU=Dev, CN=SecondCA/emailAddress=secondca@world.com
        Subject Public Key Info:
            Public Key Algorithm: rsaEncryption
                RSA Public-Key: (2048 bit)
                Modulus:
                    00:d7:29:a3:b9:46:e6:db:62:4b:cc:89:b7:3c:46:
                    56:53:bb:94:0d:11:a8:e0:cb:d7:13:bc:e0:44:be:
                    8c:4d:c2:3c:b0:95:a3:cd:e5:f7:91:3e:64:74:19:
                    65:62:f2:02:bf:c3:ac:60:a6:ac:ff:77:f8:e0:c8:
                    34:69:0c:bc:b6:65:11:5f:af:61:cc:73:31:97:91:
                    c1:cb:48:4f:28:1a:49:ac:55:e9:b3:8d:f6:6d:85:
                    de:4d:62:41:94:bf:80:a9:0b:f4:bd:62:fc:5d:e7:
                    90:e0:04:b8:26:0c:83:01:df:3f:2f:bf:13:de:c7:
                    f4:40:91:a7:0b:76:9b:39:5d:e3:45:10:66:3d:67:
                    41:8d:67:73:c9:79:17:5d:29:e4:64:a2:36:9e:70:
                    f7:c3:7f:16:79:3d:64:21:12:50:ab:4f:be:22:b9:
                    e3:59:63:be:cf:ad:be:04:af:b8:ab:49:24:86:dd:
                    85:b9:fe:c5:6e:4e:f6:14:04:ef:db:bd:8a:e9:a8:
                    d7:30:52:8d:92:8c:30:c7:51:a9:32:1a:aa:df:f4:
                    39:fa:ae:df:d8:3f:3a:c7:de:2c:27:c6:af:e3:45:
                    f6:cb:93:69:e2:44:30:53:cc:cc:e8:52:76:0c:bd:
                    cd:ff:9f:ca:45:49:1a:e5:f1:7d:e7:4b:cd:b8:0f:
                    d3:a9
                Exponent: 65537 (0x10001)
        X509v3 extensions:
            X509v3 Subject Key Identifier: 
                C7:83:AD:B8:8A:A9:78:47:3D:C7:69:FC:23:69:4B:D5:67:FC:C4:DF
            X509v3 Authority Key Identifier: 
                keyid:57:18:1C:B2:E4:DE:14:6E:23:F4:35:C4:CA:5A:98:F6:C8:3B:09:DF

            X509v3 Basic Constraints: critical
                CA:TRUE
    Signature Algorithm: sha256WithRSAEncryption
         60:ce:7c:c2:15:d4:00:b9:6d:d6:e9:9e:14:83:86:9c:e4:06:
         38:77:39:7a:a3:3d:4a:65:84:29:be:55:21:54:71:21:39:bd:
         37:b8:12:75:2c:0a:6a:48:01:89:00:03:fd:9f:9e:be:8a:6f:
         d1:85:25:eb:a8:5a:55:a9:a3:8b:d1:5b:d8:3c:aa:f4:43:07:
         b0:28:57:fa:23:69:f3:db:e1:5d:9e:a5:92:da:1e:92:50:73:
         1c:aa:a6:51:85:2a:a3:ca:0c:05:d9:95:72:d7:51:b5:8b:02:
         eb:6a:f2:ae:c6:2c:bd:cc:96:a0:c5:9d:10:c7:05:a7:d7:10:
         72:4e:05:01:bb:1f:24:c3:b7:6d:2e:a0:83:34:fb:5d:1e:84:
         95:b4:2e:53:b6:50:3f:d2:43:96:44:91:8c:01:e5:f3:64:e2:
         b2:4c:82:d9:9b:f8:d8:9b:a3:6c:76:65:d3:1d:d2:b6:a4:bf:
         90:86:0a:37:f5:dd:a3:1c:ce:78:18:71:b3:63:9d:41:63:88:
         ba:1f:1d:31:1c:a1:89:83:55:3a:a3:77:85:b8:d7:a1:63:d9:
         1f:96:7d:d6:a5:3c:47:2d:a1:10:a3:0c:c8:bb:75:92:f1:40:
         e6:3b:fc:87:ac:65:b5:c9:91:53:2d:6c:ff:25:ad:56:fe:f5:
         79:7b:96:3d
-----BEGIN CERTIFICATE-----
MIIDtTCCAp2gAwIBAgIBATANBgkqhkiG9w0BAQsFADB4MQswCQYDVQQGEwJDTjEL
MAkGA1UECAwCSlMxCzAJBgNVBAcMAk5KMQ8wDQYDVQQKDAZIdWF3ZWkxDDAKBgNV
BAsMA0RldjEPMA0GA1UEAwwGUm9vdENBMR8wHQYJKoZIhvcNAQkBFhByb290Y2FA
d29ybGQuY29tMB4XDTIyMTAxMjA5NDIwOFoXDTMyMTAwOTA5NDIwOFowbzELMAkG
A1UEBhMCQ04xCzAJBgNVBAgMAkpTMQ8wDQYDVQQKDAZIdWF3ZWkxDDAKBgNVBAsM
A0RldjERMA8GA1UEAwwIU2Vjb25kQ0ExITAfBgkqhkiG9w0BCQEWEnNlY29uZGNh
QHdvcmxkLmNvbTCCASIwDQYJKoZIhvcNAQEBBQADggEPADCCAQoCggEBANcpo7lG
5ttiS8yJtzxGVlO7lA0RqODL1xO84ES+jE3CPLCVo83l95E+ZHQZZWLyAr/DrGCm
rP93+ODINGkMvLZlEV+vYcxzMZeRwctITygaSaxV6bON9m2F3k1iQZS/gKkL9L1i
/F3nkOAEuCYMgwHfPy+/E97H9ECRpwt2mzld40UQZj1nQY1nc8l5F10p5GSiNp5w
98N/Fnk9ZCESUKtPviK541ljvs+tvgSvuKtJJIbdhbn+xW5O9hQE79u9iumo1zBS
jZKMMMdRqTIaqt/0Ofqu39g/OsfeLCfGr+NF9suTaeJEMFPMzOhSdgy9zf+fykVJ
GuXxfedLzbgP06kCAwEAAaNTMFEwHQYDVR0OBBYEFMeDrbiKqXhHPcdp/CNpS9Vn
/MTfMB8GA1UdIwQYMBaAFFcYHLLk3hRuI/Q1xMpamPbIOwnfMA8GA1UdEwEB/wQF
MAMBAf8wDQYJKoZIhvcNAQELBQADggEBAGDOfMIV1AC5bdbpnhSDhpzkBjh3OXqj
PUplhCm+VSFUcSE5vTe4EnUsCmpIAYkAA/2fnr6Kb9GFJeuoWlWpo4vRW9g8qvRD
B7AoV/ojafPb4V2epZLaHpJQcxyqplGFKqPKDAXZlXLXUbWLAutq8q7GLL3MlqDF
nRDHBafXEHJOBQG7HyTDt20uoIM0+10ehJW0LlO2UD/SQ5ZEkYwB5fNk4rJMgtmb
+Nibo2x2ZdMd0rakv5CGCjf13aMczngYcbNjnUFjiLofHTEcoYmDVTqjd4W416Fj
2R+WfdalPEctoRCjDMi7dZLxQOY7/IesZbXJkVMtbP8lrVb+9Xl7lj0=
-----END CERTIFICATE-----
