Certificate:
    Data:
        Version: 3 (0x2)
        Serial Number: 2 (0x2)
        Signature Algorithm: sha256WithRSAEncryption
        Issuer: C=CN, ST=JS, O=Huawei, OU=Dev, CN=SecondCA/emailAddress=secondca@world.com
        Validity
            Not Before: Oct 12 09:44:13 2022 GMT
            Not After : Oct  9 09:44:13 2032 GMT
        Subject: C=CN, ST=JS, O=Huawei, OU=Dev, CN=testsert.com/emailAddress=test@world.com
        Subject Public Key Info:
            Public Key Algorithm: rsaEncryption
                RSA Public-Key: (2048 bit)
                Modulus:
                    00:a7:db:a3:51:d1:f0:7c:6f:de:a3:2a:34:68:75:
                    b9:f3:ef:f8:76:f6:50:0f:2e:4f:3c:8c:3e:fd:60:
                    1b:ed:f7:d5:7d:ac:41:4a:9b:bf:5e:63:12:e4:cb:
                    72:3c:68:39:8b:82:3a:68:85:40:f1:c9:a6:3f:88:
                    ef:97:0f:46:b2:2e:b1:c3:a3:f0:15:27:58:99:69:
                    7a:36:8f:68:80:92:d9:73:b0:cc:c1:b9:01:ee:6b:
                    52:43:e8:2f:25:5c:8e:19:6e:e9:8d:c0:e2:41:58:
                    68:ab:c7:f3:ee:7c:5f:02:35:14:cf:0e:6e:cc:1e:
                    f9:75:a7:91:92:23:e0:2e:4e:0a:16:08:8f:bd:59:
                    87:62:12:db:3a:4f:42:39:67:62:40:00:dc:52:66:
                    2b:b2:ca:a1:c3:2e:6e:36:4e:4a:58:6f:23:0c:db:
                    04:8f:74:eb:d2:20:10:e3:ab:83:5c:4a:ae:59:b5:
                    82:36:e6:7c:61:65:5c:c6:22:f7:32:c4:9b:44:8e:
                    f1:d8:54:e5:c5:8b:63:c4:10:29:89:1d:b8:41:7d:
                    86:ea:f0:7b:e7:ec:a4:64:6f:4c:f8:5b:4f:b2:11:
                    f3:25:b7:c7:0e:e4:6a:1e:d3:50:3b:39:6f:78:cc:
                    e8:c7:bd:53:43:3b:7e:b6:f6:de:ce:f0:4f:7d:69:
                    da:63
                Exponent: 65537 (0x10001)
        X509v3 extensions:
            X509v3 Basic Constraints: 
                CA:FALSE
            Netscape Comment: 
                OpenSSL Generated Certificate
            X509v3 Subject Key Identifier: 
                2E:DE:C4:D7:37:06:30:C1:39:C8:81:CE:8E:6A:55:8F:9D:A8:F2:88
            X509v3 Authority Key Identifier: 
                keyid:C7:83:AD:B8:8A:A9:78:47:3D:C7:69:FC:23:69:4B:D5:67:FC:C4:DF

    Signature Algorithm: sha256WithRSAEncryption
         6a:d9:7c:1b:2e:c3:bc:70:89:9d:d5:d3:ae:d3:95:7a:53:4c:
         d6:fb:f4:0c:f5:68:cf:f7:88:55:50:98:b2:43:ec:9e:c4:73:
         4b:29:cb:cf:c7:ed:86:e3:89:f8:fe:a5:2b:f3:4b:6f:80:7a:
         f5:fe:89:3d:c9:0c:da:2f:e0:8a:43:1f:e1:2d:8b:38:e4:81:
         84:94:b7:2c:3d:4d:ad:57:44:19:14:e9:5c:52:09:ae:99:93:
         83:8e:e4:d4:67:31:f9:a1:93:1c:56:e3:e6:d4:88:80:57:b4:
         c5:86:7e:d9:d2:ae:08:fa:db:62:71:99:cf:2e:c7:56:f9:b9:
         0f:41:0d:99:ac:9a:1d:99:b0:5b:f3:9b:d6:6f:dd:aa:8b:d9:
         16:52:50:4f:68:bc:7b:9e:db:cf:ec:53:0e:59:06:0f:c9:6a:
         50:13:68:a9:57:7b:c8:52:a5:d4:c6:65:c1:8d:a9:c7:8c:ec:
         48:8c:c5:04:0e:94:69:26:4a:e9:3d:4a:f3:9e:3f:f5:fe:36:
         29:51:04:7b:a2:11:2c:45:26:cd:cc:a8:09:cc:a2:20:9b:64:
         2f:4f:d0:bb:70:ae:34:6e:ca:7d:79:7d:d5:48:46:14:7f:52:
         47:57:92:e7:98:65:37:d3:bd:c6:50:16:a6:17:e3:8e:97:15:
         b2:4f:8e:c0
-----BEGIN CERTIFICATE-----
MIID1DCCArygAwIBAgIBAjANBgkqhkiG9w0BAQsFADBvMQswCQYDVQQGEwJDTjEL
MAkGA1UECAwCSlMxDzANBgNVBAoMBkh1YXdlaTEMMAoGA1UECwwDRGV2MREwDwYD
VQQDDAhTZWNvbmRDQTEhMB8GCSqGSIb3DQEJARYSc2Vjb25kY2FAd29ybGQuY29t
MB4XDTIyMTAxMjA5NDQxM1oXDTMyMTAwOTA5NDQxM1owbzELMAkGA1UEBhMCQ04x
CzAJBgNVBAgMAkpTMQ8wDQYDVQQKDAZIdWF3ZWkxDDAKBgNVBAsMA0RldjEVMBMG
A1UEAwwMdGVzdHNlcnQuY29tMR0wGwYJKoZIhvcNAQkBFg50ZXN0QHdvcmxkLmNv
bTCCASIwDQYJKoZIhvcNAQEBBQADggEPADCCAQoCggEBAKfbo1HR8Hxv3qMqNGh1
ufPv+Hb2UA8uTzyMPv1gG+331X2sQUqbv15jEuTLcjxoOYuCOmiFQPHJpj+I75cP
RrIuscOj8BUnWJlpejaPaICS2XOwzMG5Ae5rUkPoLyVcjhlu6Y3A4kFYaKvH8+58
XwI1FM8Obswe+XWnkZIj4C5OChYIj71Zh2IS2zpPQjlnYkAA3FJmK7LKocMubjZO
SlhvIwzbBI9069IgEOOrg1xKrlm1gjbmfGFlXMYi9zLEm0SO8dhU5cWLY8QQKYkd
uEF9hurwe+fspGRvTPhbT7IR8yW3xw7kah7TUDs5b3jM6Me9U0M7frb23s7wT31p
2mMCAwEAAaN7MHkwCQYDVR0TBAIwADAsBglghkgBhvhCAQ0EHxYdT3BlblNTTCBH
ZW5lcmF0ZWQgQ2VydGlmaWNhdGUwHQYDVR0OBBYEFC7exNc3BjDBOciBzo5qVY+d
qPKIMB8GA1UdIwQYMBaAFMeDrbiKqXhHPcdp/CNpS9Vn/MTfMA0GCSqGSIb3DQEB
CwUAA4IBAQBq2XwbLsO8cImd1dOu05V6U0zW+/QM9WjP94hVUJiyQ+yexHNLKcvP
x+2G44n4/qUr80tvgHr1/ok9yQzaL+CKQx/hLYs45IGElLcsPU2tV0QZFOlcUgmu
mZODjuTUZzH5oZMcVuPm1IiAV7TFhn7Z0q4I+tticZnPLsdW+bkPQQ2ZrJodmbBb
85vWb92qi9kWUlBPaLx7ntvP7FMOWQYPyWpQE2ipV3vIUqXUxmXBjanHjOxIjMUE
DpRpJkrpPUrznj/1/jYpUQR7ohEsRSbNzKgJzKIgm2QvT9C7cK40bsp9eX3VSEYU
f1JHV5LnmGU3073GUBamF+OOlxWyT47A
-----END CERTIFICATE-----
